target datalayout = "e-m:e-p270:32:32-p271:32:32-p272:64:64-i64:64-i128:128-f80:128-n8:16:32:64-S128"
target triple = "x86_64-pc-linux-gnu"

%struct.digestdata = type { ptr, ptr, ptr, ptr, ptr, ptr, i32, i8, i8 }

@Curl_cfree = external global ptr, align 8

; Function Attrs: nounwind uwtable
define dso_local void @Curl_auth_digest_cleanup(ptr noundef %0) #0 {
  %2 = alloca ptr, align 8
  store ptr %0, ptr %2, align 8
  br label %3

3:                                                ; preds = %1
  %4 = load ptr, ptr @Curl_cfree, align 8
  %5 = load ptr, ptr %2, align 8
  %6 = getelementptr inbounds %struct.digestdata, ptr %5, i32 0, i32 0
  %7 = load ptr, ptr %6, align 8
  call void %4(ptr noundef %7)
  %8 = load ptr, ptr %2, align 8
  %9 = getelementptr inbounds %struct.digestdata, ptr %8, i32 0, i32 0
  store ptr null, ptr %9, align 8
  br label %10

10:                                               ; preds = %3
  br label %11

11:                                               ; preds = %10
  %12 = load ptr, ptr @Curl_cfree, align 8
  %13 = load ptr, ptr %2, align 8
  %14 = getelementptr inbounds %struct.digestdata, ptr %13, i32 0, i32 1
  %15 = load ptr, ptr %14, align 8
  call void %12(ptr noundef %15)
  %16 = load ptr, ptr %2, align 8
  %17 = getelementptr inbounds %struct.digestdata, ptr %16, i32 0, i32 1
  store ptr null, ptr %17, align 8
  br label %18

18:                                               ; preds = %11
  br label %19

19:                                               ; preds = %18
  %20 = load ptr, ptr @Curl_cfree, align 8
  %21 = load ptr, ptr %2, align 8
  %22 = getelementptr inbounds %struct.digestdata, ptr %21, i32 0, i32 2
  %23 = load ptr, ptr %22, align 8
  call void %20(ptr noundef %23)
  %24 = load ptr, ptr %2, align 8
  %25 = getelementptr inbounds %struct.digestdata, ptr %24, i32 0, i32 2
  store ptr null, ptr %25, align 8
  br label %26

26:                                               ; preds = %19
  br label %27

27:                                               ; preds = %26
  %28 = load ptr, ptr @Curl_cfree, align 8
  %29 = load ptr, ptr %2, align 8
  %30 = getelementptr inbounds %struct.digestdata, ptr %29, i32 0, i32 3
  %31 = load ptr, ptr %30, align 8
  call void %28(ptr noundef %31)
  %32 = load ptr, ptr %2, align 8
  %33 = getelementptr inbounds %struct.digestdata, ptr %32, i32 0, i32 3
  store ptr null, ptr %33, align 8
  br label %34

34:                                               ; preds = %27
  br label %35

35:                                               ; preds = %34
  %36 = load ptr, ptr @Curl_cfree, align 8
  %37 = load ptr, ptr %2, align 8
  %38 = getelementptr inbounds %struct.digestdata, ptr %37, i32 0, i32 4
  %39 = load ptr, ptr %38, align 8
  call void %36(ptr noundef %39)
  %40 = load ptr, ptr %2, align 8
  %41 = getelementptr inbounds %struct.digestdata, ptr %40, i32 0, i32 4
  store ptr null, ptr %41, align 8
  br label %42

42:                                               ; preds = %35
  br label %43

43:                                               ; preds = %42
  %44 = load ptr, ptr @Curl_cfree, align 8
  %45 = load ptr, ptr %2, align 8
  %46 = getelementptr inbounds %struct.digestdata, ptr %45, i32 0, i32 5
  %47 = load ptr, ptr %46, align 8
  call void %44(ptr noundef %47)
  %48 = load ptr, ptr %2, align 8
  %49 = getelementptr inbounds %struct.digestdata, ptr %48, i32 0, i32 5
  store ptr null, ptr %49, align 8
  br label %50

50:                                               ; preds = %43
  %51 = load ptr, ptr %2, align 8
  %52 = getelementptr inbounds %struct.digestdata, ptr %51, i32 0, i32 6
  store i32 0, ptr %52, align 8
  %53 = load ptr, ptr %2, align 8
  %54 = getelementptr inbounds %struct.digestdata, ptr %53, i32 0, i32 7
  store i8 0, ptr %54, align 4
  %55 = load ptr, ptr %2, align 8
  %56 = getelementptr inbounds %struct.digestdata, ptr %55, i32 0, i32 8
  %57 = load i8, ptr %56, align 1
  %58 = and i8 %57, -2
  %59 = or i8 %58, 0
  store i8 %59, ptr %56, align 1
  %60 = load ptr, ptr %2, align 8
  %61 = getelementptr inbounds %struct.digestdata, ptr %60, i32 0, i32 8
  %62 = load i8, ptr %61, align 1
  %63 = and i8 %62, -3
  %64 = or i8 %63, 0
  store i8 %64, ptr %61, align 1
  ret void
}