; Function Attrs: nounwind uwtable
define dso_local void @Curl_auth_digest_cleanup(ptr noundef captures(none) initializes((48, 53)) %0) local_unnamed_addr #2 {
  %2 = load ptr, ptr @Curl_cfree, align 8
  %3 = load ptr, ptr %0, align 8
  tail call void %2(ptr noundef %3) #10
  store ptr null, ptr %0, align 8
  %4 = load ptr, ptr @Curl_cfree, align 8
  %5 = getelementptr inbounds nuw i8, ptr %0, i64 8
  %6 = load ptr, ptr %5, align 8
  tail call void %4(ptr noundef %6) #10
  store ptr null, ptr %5, align 8
  %7 = load ptr, ptr @Curl_cfree, align 8
  %8 = getelementptr inbounds nuw i8, ptr %0, i64 16
  %9 = load ptr, ptr %8, align 8
  tail call void %7(ptr noundef %9) #10
  store ptr null, ptr %8, align 8
  %10 = load ptr, ptr @Curl_cfree, align 8
  %11 = getelementptr inbounds nuw i8, ptr %0, i64 24
  %12 = load ptr, ptr %11, align 8
  tail call void %10(ptr noundef %12) #10
  store ptr null, ptr %11, align 8
  %13 = load ptr, ptr @Curl_cfree, align 8
  %14 = getelementptr inbounds nuw i8, ptr %0, i64 32
  %15 = load ptr, ptr %14, align 8
  tail call void %13(ptr noundef %15) #10
  store ptr null, ptr %14, align 8
  %16 = load ptr, ptr @Curl_cfree, align 8
  %17 = getelementptr inbounds nuw i8, ptr %0, i64 40
  %18 = load ptr, ptr %17, align 8
  tail call void %16(ptr noundef %18) #10
  store ptr null, ptr %17, align 8
  %19 = getelementptr inbounds nuw i8, ptr %0, i64 48
  store i32 0, ptr %19, align 8
  %20 = getelementptr inbounds nuw i8, ptr %0, i64 52
  store i8 0, ptr %20, align 4
  %21 = getelementptr inbounds nuw i8, ptr %0, i64 53
  %22 = load i8, ptr %21, align 1
  %23 = and i8 %22, -4
  store i8 %23, ptr %21, align 1
  ret void
}